target datalayout = "e-m:e-p270:32:32-p271:32:32-p272:64:64-i64:64-i128:128-f80:128-n8:16:32:64-S128"
target triple = "x86_64-pc-linux-gnu"

%struct.CVodeMemRec = type { double, ptr, ptr, i32, i32, i32, double, double, ptr, i32, ptr, ptr, i32, ptr, i32, i32, double, double, ptr, i32, i32, i32, ptr, ptr, ptr, i32, i32, ptr, ptr, ptr, i32, double, i32, i32, double, ptr, ptr, i32, ptr, ptr, i32, i32, i32, double, ptr, ptr, [13 x ptr], ptr, ptr, ptr, ptr, ptr, [13 x ptr], ptr, ptr, ptr, ptr, [13 x ptr], ptr, ptr, ptr, ptr, ptr, i32, [13 x ptr], ptr, ptr, ptr, ptr, ptr, i32, double, i32, i32, i32, i32, i32, double, double, double, double, double, double, double, double, [14 x double], [6 x double], [13 x double], double, double, double, double, double, double, double, double, double, double, double, i32, ptr, i32, i64, i32, i32, i32, i32, i32, double, double, double, i64, i64, i64, i64, i64, i64, i64, i64, i64, ptr, i64, i64, ptr, i64, i64, i64, i64, i64, i64, i32, i64, i64, i64, i64, i64, i64, double, double, double, ptr, ptr, ptr, ptr, ptr, i32, i32, i64, double, double, double, i32, double, i32, i32, i32, i32, i32, i32, i32, i32, i32, i32, i32, i32, i32, i32, i32, i32, ptr, ptr, ptr, i32, [6 x [4 x double]], i32, i64, ptr, i32, ptr, ptr, double, double, double, ptr, ptr, ptr, double, double, i32, i32, i64, ptr, i32, i32, ptr, i32 }

@.str = private unnamed_addr constant [7 x i8] c"CVODES\00", align 1
@.str.6 = private unnamed_addr constant [26 x i8] c"cvode_mem = NULL illegal.\00", align 1
@.str.20 = private unnamed_addr constant [38 x i8] c"Quadrature integration not activated.\00", align 1
@.str.22 = private unnamed_addr constant [21 x i8] c"reltolQ < 0 illegal.\00", align 1
@.str.23 = private unnamed_addr constant [45 x i8] c"abstolQ has negative component(s) (illegal).\00", align 1
@.str.24 = private unnamed_addr constant [22 x i8] c"CVodeQuadSVtolerances\00", align 1
@.str.25 = private unnamed_addr constant [24 x i8] c"abstolQ = NULL illegal.\00", align 1

; Function Attrs: nounwind uwtable
define i32 @CVodeQuadSVtolerances(ptr noundef %0, double noundef %1, ptr noundef %2) #0 {
  %4 = alloca i32, align 4
  %5 = alloca ptr, align 8
  %6 = alloca double, align 8
  %7 = alloca ptr, align 8
  %8 = alloca ptr, align 8
  %9 = alloca i32, align 4
  store ptr %0, ptr %5, align 8, !tbaa !101
  store double %1, ptr %6, align 8, !tbaa !102
  store ptr %2, ptr %7, align 8, !tbaa !103
  call void @llvm.lifetime.start.p0(i64 8, ptr %8) #8
  %10 = load ptr, ptr %5, align 8, !tbaa !101
  %11 = icmp eq ptr %10, null
  br i1 %11, label %12, label %13

12:                                               ; preds = %3
  call void (ptr, i32, ptr, ptr, ptr, ...) @cvProcessError(ptr noundef null, i32 noundef -21, ptr noundef @.str, ptr noundef @.str.24, ptr noundef @.str.6)
  store i32 -21, ptr %4, align 4
  store i32 1, ptr %9, align 4
  br label %75

13:                                               ; preds = %3
  %14 = load ptr, ptr %5, align 8, !tbaa !101
  store ptr %14, ptr %8, align 8, !tbaa !7
  %15 = load ptr, ptr %8, align 8, !tbaa !7
  %16 = getelementptr inbounds nuw %struct.CVodeMemRec, ptr %15, i32 0, i32 162
  %17 = load i32, ptr %16, align 4, !tbaa !91
  %18 = icmp eq i32 %17, 0
  br i1 %18, label %19, label %21

19:                                               ; preds = %13
  %20 = load ptr, ptr %8, align 8, !tbaa !7
  call void (ptr, i32, ptr, ptr, ptr, ...) @cvProcessError(ptr noundef %20, i32 noundef -30, ptr noundef @.str, ptr noundef @.str.24, ptr noundef @.str.20)
  store i32 -30, ptr %4, align 4
  store i32 1, ptr %9, align 4
  br label %75

21:                                               ; preds = %13
  %22 = load double, ptr %6, align 8, !tbaa !102
  %23 = fcmp olt double %22, 0.000000e+00
  br i1 %23, label %24, label %26

24:                                               ; preds = %21
  %25 = load ptr, ptr %8, align 8, !tbaa !7
  call void (ptr, i32, ptr, ptr, ptr, ...) @cvProcessError(ptr noundef %25, i32 noundef -22, ptr noundef @.str, ptr noundef @.str.24, ptr noundef @.str.22)
  store i32 -22, ptr %4, align 4
  store i32 1, ptr %9, align 4
  br label %75

26:                                               ; preds = %21
  %27 = load ptr, ptr %7, align 8, !tbaa !103
  %28 = icmp eq ptr %27, null
  br i1 %28, label %29, label %31

29:                                               ; preds = %26
  %30 = load ptr, ptr %8, align 8, !tbaa !7
  call void (ptr, i32, ptr, ptr, ptr, ...) @cvProcessError(ptr noundef %30, i32 noundef -22, ptr noundef @.str, ptr noundef @.str.24, ptr noundef @.str.25)
  store i32 -22, ptr %4, align 4
  store i32 1, ptr %9, align 4
  br label %75

31:                                               ; preds = %26
  %32 = load ptr, ptr %7, align 8, !tbaa !103
  %33 = call double @N_VMin(ptr noundef %32)
  %34 = fcmp olt double %33, 0.000000e+00
  br i1 %34, label %35, label %37

35:                                               ; preds = %31
  %36 = load ptr, ptr %8, align 8, !tbaa !7
  call void (ptr, i32, ptr, ptr, ptr, ...) @cvProcessError(ptr noundef %36, i32 noundef -22, ptr noundef @.str, ptr noundef @.str.24, ptr noundef @.str.23)
  store i32 -22, ptr %4, align 4
  store i32 1, ptr %9, align 4
  br label %75

37:                                               ; preds = %31
  %38 = load ptr, ptr %8, align 8, !tbaa !7
  %39 = getelementptr inbounds nuw %struct.CVodeMemRec, ptr %38, i32 0, i32 15
  store i32 2, ptr %39, align 4, !tbaa !57
  %40 = load double, ptr %6, align 8, !tbaa !102
  %41 = load ptr, ptr %8, align 8, !tbaa !7
  %42 = getelementptr inbounds nuw %struct.CVodeMemRec, ptr %41, i32 0, i32 16
  store double %40, ptr %42, align 8, !tbaa !181
  %43 = load ptr, ptr %8, align 8, !tbaa !7
  %44 = getelementptr inbounds nuw %struct.CVodeMemRec, ptr %43, i32 0, i32 161
  %45 = load i32, ptr %44, align 8, !tbaa !90
  %46 = icmp ne i32 %45, 0
  br i1 %46, label %70, label %47

47:                                               ; preds = %37
  %48 = load ptr, ptr %8, align 8, !tbaa !7
  %49 = getelementptr inbounds nuw %struct.CVodeMemRec, ptr %48, i32 0, i32 56
  %50 = load ptr, ptr %49, align 8, !tbaa !178
  %51 = call ptr @N_VClone(ptr noundef %50)
  %52 = load ptr, ptr %8, align 8, !tbaa !7
  %53 = getelementptr inbounds nuw %struct.CVodeMemRec, ptr %52, i32 0, i32 18
  store ptr %51, ptr %53, align 8, !tbaa !183
  %54 = load ptr, ptr %8, align 8, !tbaa !7
  %55 = getelementptr inbounds nuw %struct.CVodeMemRec, ptr %54, i32 0, i32 133
  %56 = load i64, ptr %55, align 8, !tbaa !171
  %57 = load ptr, ptr %8, align 8, !tbaa !7
  %58 = getelementptr inbounds nuw %struct.CVodeMemRec, ptr %57, i32 0, i32 135
  %59 = load i64, ptr %58, align 8, !tbaa !86
  %60 = add nsw i64 %59, %56
  store i64 %60, ptr %58, align 8, !tbaa !86
  %61 = load ptr, ptr %8, align 8, !tbaa !7
  %62 = getelementptr inbounds nuw %struct.CVodeMemRec, ptr %61, i32 0, i32 134
  %63 = load i64, ptr %62, align 8, !tbaa !172
  %64 = load ptr, ptr %8, align 8, !tbaa !7
  %65 = getelementptr inbounds nuw %struct.CVodeMemRec, ptr %64, i32 0, i32 136
  %66 = load i64, ptr %65, align 8, !tbaa !87
  %67 = add nsw i64 %66, %63
  store i64 %67, ptr %65, align 8, !tbaa !87
  %68 = load ptr, ptr %8, align 8, !tbaa !7
  %69 = getelementptr inbounds nuw %struct.CVodeMemRec, ptr %68, i32 0, i32 161
  store i32 1, ptr %69, align 8, !tbaa !90
  br label %70

70:                                               ; preds = %47, %37
  %71 = load ptr, ptr %7, align 8, !tbaa !103
  %72 = load ptr, ptr %8, align 8, !tbaa !7
  %73 = getelementptr inbounds nuw %struct.CVodeMemRec, ptr %72, i32 0, i32 18
  %74 = load ptr, ptr %73, align 8, !tbaa !183
  call void @N_VScale(double noundef 1.000000e+00, ptr noundef %71, ptr noundef %74)
  store i32 0, ptr %4, align 4
  store i32 1, ptr %9, align 4
  br label %75

75:                                               ; preds = %70, %35, %29, %24, %19, %12
  call void @llvm.lifetime.end.p0(i64 8, ptr %8) #8
  %76 = load i32, ptr %4, align 4
  ret i32 %76
}