; Function Attrs: nounwind uwtable
define range(i32 -30, 1) i32 @CVodeQuadSVtolerances(ptr noundef captures(address_is_null) %0, double noundef %1, ptr noundef %2) local_unnamed_addr #0 {
  %4 = icmp eq ptr %0, null
  br i1 %4, label %5, label %6

5:                                                ; preds = %3
  tail call void (ptr, i32, ptr, ptr, ptr, ...) @cvProcessError(ptr noundef null, i32 noundef -21, ptr noundef nonnull @.str, ptr noundef nonnull @.str.24, ptr noundef nonnull @.str.6)
  br label %43

6:                                                ; preds = %3
  %7 = getelementptr inbounds nuw i8, ptr %0, i64 1796
  %8 = load i32, ptr %7, align 4, !tbaa !126
  %9 = icmp eq i32 %8, 0
  br i1 %9, label %10, label %11

10:                                               ; preds = %6
  tail call void (ptr, i32, ptr, ptr, ptr, ...) @cvProcessError(ptr noundef nonnull %0, i32 noundef -30, ptr noundef nonnull @.str, ptr noundef nonnull @.str.24, ptr noundef nonnull @.str.20)
  br label %43

11:                                               ; preds = %6
  %12 = fcmp olt double %1, 0.000000e+00
  br i1 %12, label %13, label %14

13:                                               ; preds = %11
  tail call void (ptr, i32, ptr, ptr, ptr, ...) @cvProcessError(ptr noundef nonnull %0, i32 noundef -22, ptr noundef nonnull @.str, ptr noundef nonnull @.str.24, ptr noundef nonnull @.str.22)
  br label %43

14:                                               ; preds = %11
  %15 = icmp eq ptr %2, null
  br i1 %15, label %16, label %17

16:                                               ; preds = %14
  tail call void (ptr, i32, ptr, ptr, ptr, ...) @cvProcessError(ptr noundef nonnull %0, i32 noundef -22, ptr noundef nonnull @.str, ptr noundef nonnull @.str.24, ptr noundef nonnull @.str.25)
  br label %43

17:                                               ; preds = %14
  %18 = tail call double @N_VMin(ptr noundef nonnull %2) #13
  %19 = fcmp olt double %18, 0.000000e+00
  br i1 %19, label %20, label %21

20:                                               ; preds = %17
  tail call void (ptr, i32, ptr, ptr, ptr, ...) @cvProcessError(ptr noundef nonnull %0, i32 noundef -22, ptr noundef nonnull @.str, ptr noundef nonnull @.str.24, ptr noundef nonnull @.str.23)
  br label %43

21:                                               ; preds = %17
  %22 = getelementptr inbounds nuw i8, ptr %0, i64 108
  store i32 2, ptr %22, align 4, !tbaa !127
  %23 = getelementptr inbounds nuw i8, ptr %0, i64 112
  store double %1, ptr %23, align 8, !tbaa !128
  %24 = getelementptr inbounds nuw i8, ptr %0, i64 1792
  %25 = load i32, ptr %24, align 8, !tbaa !130
  %.not = icmp eq i32 %25, 0
  br i1 %.not, label %26, label %._crit_edge

._crit_edge:                                      ; preds = %21
  %.phi.trans.insert = getelementptr inbounds nuw i8, ptr %0, i64 128
  %.pre = load ptr, ptr %.phi.trans.insert, align 8, !tbaa !131
  br label %41

26:                                               ; preds = %21
  %27 = getelementptr inbounds nuw i8, ptr %0, i64 592
  %28 = load ptr, ptr %27, align 8, !tbaa !119
  %29 = tail call ptr @N_VClone(ptr noundef %28) #13
  %30 = getelementptr inbounds nuw i8, ptr %0, i64 128
  store ptr %29, ptr %30, align 8, !tbaa !131
  %31 = getelementptr inbounds nuw i8, ptr %0, i64 1608
  %32 = load i64, ptr %31, align 8, !tbaa !114
  %33 = getelementptr inbounds nuw i8, ptr %0, i64 1624
  %34 = load i64, ptr %33, align 8, !tbaa !42
  %35 = add nsw i64 %34, %32
  store i64 %35, ptr %33, align 8, !tbaa !42
  %36 = getelementptr inbounds nuw i8, ptr %0, i64 1616
  %37 = load i64, ptr %36, align 8, !tbaa !115
  %38 = getelementptr inbounds nuw i8, ptr %0, i64 1632
  %39 = load i64, ptr %38, align 8, !tbaa !43
  %40 = add nsw i64 %39, %37
  store i64 %40, ptr %38, align 8, !tbaa !43
  store i32 1, ptr %24, align 8, !tbaa !130
  br label %41

41:                                               ; preds = %._crit_edge, %26
  %42 = phi ptr [ %.pre, %._crit_edge ], [ %29, %26 ]
  tail call void @N_VScale(double noundef 1.000000e+00, ptr noundef nonnull %2, ptr noundef %42) #13
  br label %43

43:                                               ; preds = %41, %20, %16, %13, %10, %5
  %.0 = phi i32 [ -21, %5 ], [ -30, %10 ], [ -22, %13 ], [ -22, %16 ], [ -22, %20 ], [ 0, %41 ]
  ret i32 %.0
}